; Function Attrs: alwaysinline nounwind uwtable
define internal void @zval_ptr_dtor_nogc(ptr noundef readonly captures(none) %0) #2 {
  %2 = getelementptr inbounds nuw i8, ptr %0, i64 9
  %3 = load i8, ptr %2, align 1, !tbaa !20
  %.not = icmp eq i8 %3, 0
  br i1 %.not, label %11, label %4

4:                                                ; preds = %1
  %5 = load ptr, ptr %0, align 8, !tbaa !20
  %6 = load i32, ptr %5, align 4, !tbaa !21
  %7 = icmp ne i32 %6, 0
  tail call void @llvm.assume(i1 %7)
  %8 = add i32 %6, -1
  store i32 %8, ptr %5, align 4, !tbaa !21
  %.not3 = icmp eq i32 %8, 0
  br i1 %.not3, label %9, label %11

9:                                                ; preds = %4
  %10 = load ptr, ptr %0, align 8, !tbaa !20
  tail call void @rc_dtor_func(ptr noundef %10) #20
  br label %11

11:                                               ; preds = %9, %4, %1
  ret void
}